; ModuleID = '7/1065.c'
source_filename = "7/1065.c"
target datalayout = "e-m:e-p270:32:32-p271:32:32-p272:64:64-i64:64-f80:128-n8:16:32:64-S128"
target triple = "x86_64-pc-linux-gnu"

@.str = private unnamed_addr constant [3 x i8] c"%s\00", align 1
@.str.1 = private unnamed_addr constant [3 x i8] c"%c\00", align 1

; Function Attrs: noinline nounwind uwtable
define dso_local i32 @main() #0 {
  %1 = alloca i32, align 4
  %2 = alloca [257 x i8], align 16
  %3 = alloca [257 x i8], align 16
  %4 = alloca [257 x i8], align 16
  %5 = alloca i32, align 4
  %6 = alloca i32, align 4
  %7 = alloca i32, align 4
  %8 = alloca i32, align 4
  store i32 0, i32* %1, align 4
  store i32 0, i32* %5, align 4
  store i32 0, i32* %6, align 4
  store i32 0, i32* %7, align 4
  %9 = getelementptr inbounds [257 x i8], [257 x i8]* %2, i64 0, i64 0
  %10 = call i32 (i8*, ...) bitcast (i32 (...)* @gets to i32 (i8*, ...)*)(i8* %9)
  %11 = getelementptr inbounds [257 x i8], [257 x i8]* %3, i64 0, i64 0
  %12 = call i32 (i8*, ...) bitcast (i32 (...)* @gets to i32 (i8*, ...)*)(i8* %11)
  %13 = getelementptr inbounds [257 x i8], [257 x i8]* %4, i64 0, i64 0
  %14 = call i32 (i8*, ...) bitcast (i32 (...)* @gets to i32 (i8*, ...)*)(i8* %13)
  %15 = getelementptr inbounds [257 x i8], [257 x i8]* %3, i64 0, i64 0
  %16 = call i64 @strlen(i8* %15) #3
  %17 = trunc i64 %16 to i32
  store i32 %17, i32* %8, align 4
  store i32 0, i32* %5, align 4
  br label %18

18:                                               ; preds = %48, %0
  %19 = load i32, i32* %5, align 4
  %20 = sext i32 %19 to i64
  %21 = getelementptr inbounds [257 x i8], [257 x i8]* %2, i64 0, i64 %20
  %22 = load i8, i8* %21, align 1
  %23 = sext i8 %22 to i32
  %24 = icmp ne i32 %23, 0
  br i1 %24, label %25, label %51

25:                                               ; preds = %18
  %26 = load i32, i32* %5, align 4
  %27 = sext i32 %26 to i64
  %28 = getelementptr inbounds [257 x i8], [257 x i8]* %2, i64 0, i64 %27
  %29 = load i8, i8* %28, align 1
  %30 = sext i8 %29 to i32
  %31 = load i32, i32* %6, align 4
  %32 = sext i32 %31 to i64
  %33 = getelementptr inbounds [257 x i8], [257 x i8]* %3, i64 0, i64 %32
  %34 = load i8, i8* %33, align 1
  %35 = sext i8 %34 to i32
  %36 = icmp eq i32 %30, %35
  br i1 %36, label %37, label %46

37:                                               ; preds = %25
  %38 = load i32, i32* %6, align 4
  %39 = add nsw i32 %38, 1
  store i32 %39, i32* %6, align 4
  %40 = load i32, i32* %6, align 4
  %41 = load i32, i32* %8, align 4
  %42 = icmp eq i32 %40, %41
  br i1 %42, label %43, label %45

43:                                               ; preds = %37
  %44 = load i32, i32* %5, align 4
  store i32 %44, i32* %7, align 4
  br label %51

45:                                               ; preds = %37
  br label %47

46:                                               ; preds = %25
  store i32 0, i32* %6, align 4
  br label %47

47:                                               ; preds = %46, %45
  br label %48

48:                                               ; preds = %47
  %49 = load i32, i32* %5, align 4
  %50 = add nsw i32 %49, 1
  store i32 %50, i32* %5, align 4
  br label %18

51:                                               ; preds = %43, %18
  store i32 0, i32* %5, align 4
  br label %52

52:                                               ; preds = %78, %51
  %53 = load i32, i32* %5, align 4
  %54 = sext i32 %53 to i64
  %55 = getelementptr inbounds [257 x i8], [257 x i8]* %2, i64 0, i64 %54
  %56 = load i8, i8* %55, align 1
  %57 = sext i8 %56 to i32
  %58 = icmp ne i32 %57, 0
  br i1 %58, label %59, label %81

59:                                               ; preds = %52
  %60 = load i32, i32* %5, align 4
  %61 = load i32, i32* %7, align 4
  %62 = load i32, i32* %8, align 4
  %63 = sub nsw i32 %61, %62
  %64 = add nsw i32 %63, 1
  %65 = icmp eq i32 %60, %64
  br i1 %65, label %66, label %70

66:                                               ; preds = %59
  %67 = getelementptr inbounds [257 x i8], [257 x i8]* %4, i64 0, i64 0
  %68 = call i32 (i8*, ...) @printf(i8* getelementptr inbounds ([3 x i8], [3 x i8]* @.str, i64 0, i64 0), i8* %67)
  %69 = load i32, i32* %7, align 4
  store i32 %69, i32* %5, align 4
  br label %77

70:                                               ; preds = %59
  %71 = load i32, i32* %5, align 4
  %72 = sext i32 %71 to i64
  %73 = getelementptr inbounds [257 x i8], [257 x i8]* %2, i64 0, i64 %72
  %74 = load i8, i8* %73, align 1
  %75 = sext i8 %74 to i32
  %76 = call i32 (i8*, ...) @printf(i8* getelementptr inbounds ([3 x i8], [3 x i8]* @.str.1, i64 0, i64 0), i32 %75)
  br label %77

77:                                               ; preds = %70, %66
  br label %78

78:                                               ; preds = %77
  %79 = load i32, i32* %5, align 4
  %80 = add nsw i32 %79, 1
  store i32 %80, i32* %5, align 4
  br label %52

81:                                               ; preds = %52
  %82 = call i32 @getchar()
  %83 = call i32 @getchar()
  %84 = call i32 @getchar()
  %85 = load i32, i32* %1, align 4
  ret i32 %85
}

declare dso_local i32 @gets(...) #1

; Function Attrs: nounwind readonly
declare dso_local i64 @strlen(i8*) #2

declare dso_local i32 @printf(i8*, ...) #1

declare dso_local i32 @getchar() #1


!llvm.module.flags = !{!0}
!llvm.ident = !{!1}

!0 = !{i32 1, !"wchar_size", i32 4}
!1 = !{!"clang version 10.0.0-4ubuntu1 "}
